target datalayout = "e-m:e-p270:32:32-p271:32:32-p272:64:64-i64:64-i128:128-f80:128-n8:16:32:64-S128"
target triple = "x86_64-pc-linux-gnu"

; Function Attrs: nounwind uwtable
define internal i32 @lre_case_conv1(i32 noundef %0, i32 noundef %1) #0 {
  %3 = alloca i32, align 4
  %4 = alloca i32, align 4
  %5 = alloca [3 x i32], align 4
  store i32 %0, ptr %3, align 4
  store i32 %1, ptr %4, align 4
  %6 = getelementptr inbounds [3 x i32], ptr %5, i64 0, i64 0
  %7 = load i32, ptr %3, align 4
  %8 = load i32, ptr %4, align 4
  %9 = call i32 @lre_case_conv(ptr noundef %6, i32 noundef %7, i32 noundef %8)
  %10 = getelementptr [3 x i32], ptr %5, i64 0, i64 0
  %11 = load i32, ptr %10, align 4
  ret i32 %11
}

; Function Attrs: nounwind uwtable
define internal i32 @lre_case_conv_entry(ptr noundef %0, i32 noundef %1, i32 noundef %2, i32 noundef %3, i32 noundef %4) #0 {
  %6 = alloca i32, align 4
  %7 = alloca ptr, align 8
  %8 = alloca i32, align 4
  %9 = alloca i32, align 4
  %10 = alloca i32, align 4
  %11 = alloca i32, align 4
  %12 = alloca i32, align 4
  %13 = alloca i32, align 4
  %14 = alloca i32, align 4
  %15 = alloca i32, align 4
  %16 = alloca i32, align 4
  store ptr %0, ptr %7, align 8
  store i32 %1, ptr %8, align 4
  store i32 %2, ptr %9, align 4
  store i32 %3, ptr %10, align 4
  store i32 %4, ptr %11, align 4
  %17 = load i32, ptr %9, align 4
  %18 = icmp ne i32 %17, 0
  %19 = zext i1 %18 to i32
  store i32 %19, ptr %16, align 4
  %20 = load i32, ptr %11, align 4
  %21 = lshr i32 %20, 4
  %22 = and i32 %21, 15
  store i32 %22, ptr %14, align 4
  %23 = load i32, ptr %11, align 4
  %24 = and i32 %23, 15
  %25 = shl i32 %24, 8
  %26 = load i32, ptr %10, align 4
  %27 = zext i32 %26 to i64
  %28 = getelementptr [370 x i8], ptr @case_conv_table2, i64 0, i64 %27
  %29 = load i8, ptr %28, align 1
  %30 = zext i8 %29 to i32
  %31 = or i32 %25, %30
  store i32 %31, ptr %13, align 4
  %32 = load i32, ptr %11, align 4
  %33 = lshr i32 %32, 15
  store i32 %33, ptr %12, align 4
  %34 = load i32, ptr %14, align 4
  switch i32 %34, label %232 [
    i32 0, label %35
    i32 1, label %35
    i32 2, label %35
    i32 3, label %35
    i32 4, label %57
    i32 5, label %72
    i32 6, label %99
    i32 7, label %129
    i32 8, label %140
    i32 9, label %154
    i32 10, label %154
    i32 12, label %166
    i32 11, label %191
    i32 13, label %233
  ]

35:                                               ; preds = %5, %5, %5, %5
  %36 = load i32, ptr %9, align 4
  %37 = load i32, ptr %14, align 4
  %38 = and i32 %37, 1
  %39 = icmp eq i32 %36, %38
  br i1 %39, label %46, label %40

40:                                               ; preds = %35
  %41 = load i32, ptr %14, align 4
  %42 = icmp uge i32 %41, 2
  br i1 %42, label %43, label %56

43:                                               ; preds = %40
  %44 = load i32, ptr %9, align 4
  %45 = icmp eq i32 %44, 2
  br i1 %45, label %46, label %56

46:                                               ; preds = %43, %35
  %47 = load i32, ptr %8, align 4
  %48 = load i32, ptr %12, align 4
  %49 = sub i32 %47, %48
  %50 = load i32, ptr %13, align 4
  %51 = zext i32 %50 to i64
  %52 = getelementptr [370 x i32], ptr @case_conv_table1, i64 0, i64 %51
  %53 = load i32, ptr %52, align 4
  %54 = lshr i32 %53, 15
  %55 = add i32 %49, %54
  store i32 %55, ptr %8, align 4
  br label %56

56:                                               ; preds = %46, %43, %40
  br label %285

57:                                               ; preds = %5
  %58 = load i32, ptr %8, align 4
  %59 = load i32, ptr %12, align 4
  %60 = sub i32 %58, %59
  store i32 %60, ptr %15, align 4
  %61 = load i32, ptr %15, align 4
  %62 = and i32 %61, 1
  %63 = load i32, ptr %16, align 4
  %64 = sub i32 1, %63
  %65 = icmp ne i32 %62, %64
  br i1 %65, label %66, label %67

66:                                               ; preds = %57
  br label %285

67:                                               ; preds = %57
  %68 = load i32, ptr %15, align 4
  %69 = xor i32 %68, 1
  %70 = load i32, ptr %12, align 4
  %71 = add i32 %69, %70
  store i32 %71, ptr %8, align 4
  br label %285

72:                                               ; preds = %5
  %73 = load i32, ptr %8, align 4
  %74 = load i32, ptr %12, align 4
  %75 = sub i32 %73, %74
  store i32 %75, ptr %15, align 4
  %76 = load i32, ptr %15, align 4
  %77 = icmp eq i32 %76, 1
  br i1 %77, label %78, label %84

78:                                               ; preds = %72
  %79 = load i32, ptr %16, align 4
  %80 = mul i32 2, %79
  %81 = sub i32 %80, 1
  %82 = load i32, ptr %8, align 4
  %83 = add i32 %82, %81
  store i32 %83, ptr %8, align 4
  br label %98

84:                                               ; preds = %72
  %85 = load i32, ptr %15, align 4
  %86 = load i32, ptr %16, align 4
  %87 = sub i32 1, %86
  %88 = mul i32 %87, 2
  %89 = icmp eq i32 %85, %88
  br i1 %89, label %90, label %97

90:                                               ; preds = %84
  %91 = load i32, ptr %16, align 4
  %92 = mul i32 2, %91
  %93 = sub i32 %92, 1
  %94 = mul i32 %93, 2
  %95 = load i32, ptr %8, align 4
  %96 = add i32 %95, %94
  store i32 %96, ptr %8, align 4
  br label %97

97:                                               ; preds = %90, %84
  br label %98

98:                                               ; preds = %97, %78
  br label %285

99:                                               ; preds = %5
  %100 = load i32, ptr %16, align 4
  %101 = icmp ne i32 %100, 0
  br i1 %101, label %117, label %102

102:                                              ; preds = %99
  %103 = load i32, ptr %8, align 4
  %104 = load i32, ptr %12, align 4
  %105 = sub i32 %103, %104
  %106 = load i32, ptr %13, align 4
  %107 = lshr i32 %106, 6
  %108 = zext i32 %107 to i64
  %109 = getelementptr [58 x i16], ptr @case_conv_ext, i64 0, i64 %108
  %110 = load i16, ptr %109, align 2
  %111 = zext i16 %110 to i32
  %112 = add i32 %105, %111
  %113 = load ptr, ptr %7, align 8
  %114 = getelementptr i32, ptr %113, i64 0
  store i32 %112, ptr %114, align 4
  %115 = load ptr, ptr %7, align 8
  %116 = getelementptr i32, ptr %115, i64 1
  store i32 921, ptr %116, align 4
  store i32 2, ptr %6, align 4
  br label %289

117:                                              ; preds = %99
  %118 = load i32, ptr %8, align 4
  %119 = load i32, ptr %12, align 4
  %120 = sub i32 %118, %119
  %121 = load i32, ptr %13, align 4
  %122 = and i32 %121, 63
  %123 = zext i32 %122 to i64
  %124 = getelementptr [58 x i16], ptr @case_conv_ext, i64 0, i64 %123
  %125 = load i16, ptr %124, align 2
  %126 = zext i16 %125 to i32
  %127 = add i32 %120, %126
  store i32 %127, ptr %8, align 4
  br label %128

128:                                              ; preds = %117
  br label %285

129:                                              ; preds = %5
  %130 = load i32, ptr %9, align 4
  %131 = icmp eq i32 %130, 1
  br i1 %131, label %132, label %133

132:                                              ; preds = %129
  br label %285

133:                                              ; preds = %129
  %134 = load i32, ptr %13, align 4
  %135 = load i32, ptr %9, align 4
  %136 = icmp eq i32 %135, 2
  %137 = zext i1 %136 to i32
  %138 = mul i32 %137, 32
  %139 = add i32 %134, %138
  store i32 %139, ptr %8, align 4
  br label %285

140:                                              ; preds = %5
  %141 = load i32, ptr %9, align 4
  %142 = icmp eq i32 %141, 1
  br i1 %142, label %143, label %144

143:                                              ; preds = %140
  br label %285

144:                                              ; preds = %140
  %145 = load i32, ptr %13, align 4
  %146 = zext i32 %145 to i64
  %147 = getelementptr [58 x i16], ptr @case_conv_ext, i64 0, i64 %146
  %148 = load i16, ptr %147, align 2
  %149 = zext i16 %148 to i32
  %150 = load i32, ptr %9, align 4
  %151 = icmp eq i32 %150, 2
  %152 = zext i1 %151 to i32
  %153 = add i32 %149, %152
  store i32 %153, ptr %8, align 4
  br label %285

154:                                              ; preds = %5, %5
  %155 = load i32, ptr %16, align 4
  %156 = load i32, ptr %14, align 4
  %157 = sub i32 %156, 9
  %158 = icmp ne i32 %155, %157
  br i1 %158, label %159, label %160

159:                                              ; preds = %154
  br label %285

160:                                              ; preds = %154
  %161 = load i32, ptr %13, align 4
  %162 = zext i32 %161 to i64
  %163 = getelementptr [58 x i16], ptr @case_conv_ext, i64 0, i64 %162
  %164 = load i16, ptr %163, align 2
  %165 = zext i16 %164 to i32
  store i32 %165, ptr %8, align 4
  br label %285

166:                                              ; preds = %5
  %167 = load i32, ptr %16, align 4
  %168 = icmp ne i32 %167, 0
  br i1 %168, label %170, label %169

169:                                              ; preds = %166
  br label %285

170:                                              ; preds = %166
  %171 = load i32, ptr %8, align 4
  %172 = load i32, ptr %12, align 4
  %173 = sub i32 %171, %172
  %174 = load i32, ptr %13, align 4
  %175 = lshr i32 %174, 6
  %176 = zext i32 %175 to i64
  %177 = getelementptr [58 x i16], ptr @case_conv_ext, i64 0, i64 %176
  %178 = load i16, ptr %177, align 2
  %179 = zext i16 %178 to i32
  %180 = add i32 %173, %179
  %181 = load ptr, ptr %7, align 8
  %182 = getelementptr i32, ptr %181, i64 0
  store i32 %180, ptr %182, align 4
  %183 = load i32, ptr %13, align 4
  %184 = and i32 %183, 63
  %185 = zext i32 %184 to i64
  %186 = getelementptr [58 x i16], ptr @case_conv_ext, i64 0, i64 %185
  %187 = load i16, ptr %186, align 2
  %188 = zext i16 %187 to i32
  %189 = load ptr, ptr %7, align 8
  %190 = getelementptr i32, ptr %189, i64 1
  store i32 %188, ptr %190, align 4
  store i32 2, ptr %6, align 4
  br label %289

191:                                              ; preds = %5
  %192 = load i32, ptr %9, align 4
  %193 = icmp eq i32 %192, 1
  br i1 %193, label %194, label %195

194:                                              ; preds = %191
  br label %285

195:                                              ; preds = %191
  %196 = load i32, ptr %8, align 4
  %197 = load i32, ptr %12, align 4
  %198 = sub i32 %196, %197
  %199 = load i32, ptr %13, align 4
  %200 = lshr i32 %199, 6
  %201 = zext i32 %200 to i64
  %202 = getelementptr [58 x i16], ptr @case_conv_ext, i64 0, i64 %201
  %203 = load i16, ptr %202, align 2
  %204 = zext i16 %203 to i32
  %205 = add i32 %198, %204
  %206 = load ptr, ptr %7, align 8
  %207 = getelementptr i32, ptr %206, i64 0
  store i32 %205, ptr %207, align 4
  %208 = load i32, ptr %13, align 4
  %209 = and i32 %208, 63
  %210 = zext i32 %209 to i64
  %211 = getelementptr [58 x i16], ptr @case_conv_ext, i64 0, i64 %210
  %212 = load i16, ptr %211, align 2
  %213 = zext i16 %212 to i32
  %214 = load ptr, ptr %7, align 8
  %215 = getelementptr i32, ptr %214, i64 1
  store i32 %213, ptr %215, align 4
  %216 = load i32, ptr %9, align 4
  %217 = icmp eq i32 %216, 2
  br i1 %217, label %218, label %231

218:                                              ; preds = %195
  %219 = load ptr, ptr %7, align 8
  %220 = getelementptr i32, ptr %219, i64 0
  %221 = load i32, ptr %220, align 4
  %222 = call i32 @lre_case_conv1(i32 noundef %221, i32 noundef 1)
  %223 = load ptr, ptr %7, align 8
  %224 = getelementptr i32, ptr %223, i64 0
  store i32 %222, ptr %224, align 4
  %225 = load ptr, ptr %7, align 8
  %226 = getelementptr i32, ptr %225, i64 1
  %227 = load i32, ptr %226, align 4
  %228 = call i32 @lre_case_conv1(i32 noundef %227, i32 noundef 1)
  %229 = load ptr, ptr %7, align 8
  %230 = getelementptr i32, ptr %229, i64 1
  store i32 %228, ptr %230, align 4
  br label %231

231:                                              ; preds = %218, %195
  store i32 2, ptr %6, align 4
  br label %289

232:                                              ; preds = %5
  br label %233

233:                                              ; preds = %232, %5
  %234 = load i32, ptr %9, align 4
  %235 = icmp eq i32 %234, 1
  br i1 %235, label %236, label %237

236:                                              ; preds = %233
  br label %285

237:                                              ; preds = %233
  %238 = load i32, ptr %13, align 4
  %239 = lshr i32 %238, 8
  %240 = zext i32 %239 to i64
  %241 = getelementptr [58 x i16], ptr @case_conv_ext, i64 0, i64 %240
  %242 = load i16, ptr %241, align 2
  %243 = zext i16 %242 to i32
  %244 = load ptr, ptr %7, align 8
  %245 = getelementptr i32, ptr %244, i64 0
  store i32 %243, ptr %245, align 4
  %246 = load i32, ptr %13, align 4
  %247 = lshr i32 %246, 4
  %248 = and i32 %247, 15
  %249 = zext i32 %248 to i64
  %250 = getelementptr [58 x i16], ptr @case_conv_ext, i64 0, i64 %249
  %251 = load i16, ptr %250, align 2
  %252 = zext i16 %251 to i32
  %253 = load ptr, ptr %7, align 8
  %254 = getelementptr i32, ptr %253, i64 1
  store i32 %252, ptr %254, align 4
  %255 = load i32, ptr %13, align 4
  %256 = and i32 %255, 15
  %257 = zext i32 %256 to i64
  %258 = getelementptr [58 x i16], ptr @case_conv_ext, i64 0, i64 %257
  %259 = load i16, ptr %258, align 2
  %260 = zext i16 %259 to i32
  %261 = load ptr, ptr %7, align 8
  %262 = getelementptr i32, ptr %261, i64 2
  store i32 %260, ptr %262, align 4
  %263 = load i32, ptr %9, align 4
  %264 = icmp eq i32 %263, 2
  br i1 %264, label %265, label %284

265:                                              ; preds = %237
  %266 = load ptr, ptr %7, align 8
  %267 = getelementptr i32, ptr %266, i64 0
  %268 = load i32, ptr %267, align 4
  %269 = call i32 @lre_case_conv1(i32 noundef %268, i32 noundef 1)
  %270 = load ptr, ptr %7, align 8
  %271 = getelementptr i32, ptr %270, i64 0
  store i32 %269, ptr %271, align 4
  %272 = load ptr, ptr %7, align 8
  %273 = getelementptr i32, ptr %272, i64 1
  %274 = load i32, ptr %273, align 4
  %275 = call i32 @lre_case_conv1(i32 noundef %274, i32 noundef 1)
  %276 = load ptr, ptr %7, align 8
  %277 = getelementptr i32, ptr %276, i64 1
  store i32 %275, ptr %277, align 4
  %278 = load ptr, ptr %7, align 8
  %279 = getelementptr i32, ptr %278, i64 2
  %280 = load i32, ptr %279, align 4
  %281 = call i32 @lre_case_conv1(i32 noundef %280, i32 noundef 1)
  %282 = load ptr, ptr %7, align 8
  %283 = getelementptr i32, ptr %282, i64 2
  store i32 %281, ptr %283, align 4
  br label %284

284:                                              ; preds = %265, %237
  store i32 3, ptr %6, align 4
  br label %289

285:                                              ; preds = %236, %194, %169, %160, %159, %144, %143, %133, %132, %128, %98, %67, %66, %56
  %286 = load i32, ptr %8, align 4
  %287 = load ptr, ptr %7, align 8
  %288 = getelementptr i32, ptr %287, i64 0
  store i32 %286, ptr %288, align 4
  store i32 1, ptr %6, align 4
  br label %289

289:                                              ; preds = %285, %284, %231, %170, %102
  %290 = load i32, ptr %6, align 4
  ret i32 %290
}