; Function Attrs: nofree nosync nounwind memory(argmem: write) uwtable
define internal fastcc noundef i32 @lre_case_conv_entry(ptr nocapture noundef writeonly %0, i32 noundef %1, i32 noundef %2, i32 noundef %3, i32 noundef %4) unnamed_addr #0 {
  %6 = alloca [3 x i32], align 4
  %7 = alloca [3 x i32], align 4
  %8 = alloca [3 x i32], align 4
  %9 = alloca [3 x i32], align 4
  %10 = alloca [3 x i32], align 4
  %11 = icmp ne i32 %2, 0
  %12 = lshr i32 %4, 4
  %13 = and i32 %12, 15
  %14 = shl i32 %4, 8
  %15 = and i32 %14, 3840
  %16 = zext i32 %3 to i64
  %17 = getelementptr [370 x i8], ptr @case_conv_table2, i64 0, i64 %16
  %18 = load i8, ptr %17, align 1
  %19 = zext i8 %18 to i32
  %20 = or disjoint i32 %15, %19
  %21 = lshr i32 %4, 15
  switch i32 %13, label %132 [
    i32 0, label %22
    i32 1, label %22
    i32 2, label %22
    i32 3, label %22
    i32 4, label %35
    i32 5, label %42
    i32 6, label %54
    i32 7, label %71
    i32 8, label %77
    i32 9, label %87
    i32 10, label %87
    i32 12, label %95
    i32 11, label %110
  ]

22:                                               ; preds = %5, %5, %5, %5
  %23 = and i32 %12, 1
  %24 = icmp eq i32 %23, %2
  br i1 %24, label %28, label %25

25:                                               ; preds = %22
  %26 = icmp ugt i32 %13, 1
  %27 = icmp eq i32 %2, 2
  %or.cond = and i1 %27, %26
  br i1 %or.cond, label %28, label %160

28:                                               ; preds = %25, %22
  %29 = sub i32 %1, %21
  %30 = zext nneg i32 %20 to i64
  %31 = getelementptr [370 x i32], ptr @case_conv_table1, i64 0, i64 %30
  %32 = load i32, ptr %31, align 4
  %33 = lshr i32 %32, 15
  %34 = add i32 %29, %33
  br label %160

35:                                               ; preds = %5
  %36 = sub i32 %1, %21
  %37 = and i32 %36, 1
  %38 = icmp ne i32 %37, 0
  %.not85 = xor i1 %11, %38
  br i1 %.not85, label %39, label %160

39:                                               ; preds = %35
  %40 = xor i32 %36, 1
  %41 = add i32 %40, %21
  br label %160

42:                                               ; preds = %5
  %43 = sub i32 %1, %21
  %44 = icmp eq i32 %43, 1
  br i1 %44, label %45, label %48

45:                                               ; preds = %42
  %46 = select i1 %11, i32 1, i32 -1
  %47 = add i32 %46, %1
  br label %160

48:                                               ; preds = %42
  %49 = select i1 %11, i32 0, i32 2
  %50 = icmp eq i32 %43, %49
  br i1 %50, label %51, label %160

51:                                               ; preds = %48
  %52 = select i1 %11, i32 2, i32 -2
  %53 = add i32 %52, %1
  br label %160

54:                                               ; preds = %5
  %55 = sub i32 %1, %21
  br i1 %11, label %64, label %56

56:                                               ; preds = %54
  %57 = lshr i32 %20, 6
  %58 = zext nneg i32 %57 to i64
  %59 = getelementptr [58 x i16], ptr @case_conv_ext, i64 0, i64 %58
  %60 = load i16, ptr %59, align 2
  %61 = zext i16 %60 to i32
  %62 = add i32 %55, %61
  store i32 %62, ptr %0, align 4
  %63 = getelementptr i8, ptr %0, i64 4
  store i32 921, ptr %63, align 4
  br label %161

64:                                               ; preds = %54
  %65 = and i32 %19, 63
  %66 = zext nneg i32 %65 to i64
  %67 = getelementptr [58 x i16], ptr @case_conv_ext, i64 0, i64 %66
  %68 = load i16, ptr %67, align 2
  %69 = zext i16 %68 to i32
  %70 = add i32 %55, %69
  br label %160

71:                                               ; preds = %5
  %72 = icmp eq i32 %2, 1
  br i1 %72, label %160, label %73

73:                                               ; preds = %71
  %74 = icmp eq i32 %2, 2
  %75 = select i1 %74, i32 32, i32 0
  %76 = add nuw nsw i32 %20, %75
  br label %160

77:                                               ; preds = %5
  %78 = icmp eq i32 %2, 1
  br i1 %78, label %160, label %79

79:                                               ; preds = %77
  %80 = zext nneg i32 %20 to i64
  %81 = getelementptr [58 x i16], ptr @case_conv_ext, i64 0, i64 %80
  %82 = load i16, ptr %81, align 2
  %83 = zext i16 %82 to i32
  %84 = icmp eq i32 %2, 2
  %85 = zext i1 %84 to i32
  %86 = add nuw nsw i32 %83, %85
  br label %160

87:                                               ; preds = %5, %5
  %88 = zext i1 %11 to i32
  %89 = add nsw i32 %13, -9
  %.not = icmp eq i32 %89, %88
  br i1 %.not, label %90, label %160

90:                                               ; preds = %87
  %91 = zext nneg i32 %20 to i64
  %92 = getelementptr [58 x i16], ptr @case_conv_ext, i64 0, i64 %91
  %93 = load i16, ptr %92, align 2
  %94 = zext i16 %93 to i32
  br label %160

95:                                               ; preds = %5
  br i1 %11, label %96, label %160

96:                                               ; preds = %95
  %97 = sub i32 %1, %21
  %98 = lshr i32 %20, 6
  %99 = zext nneg i32 %98 to i64
  %100 = getelementptr [58 x i16], ptr @case_conv_ext, i64 0, i64 %99
  %101 = load i16, ptr %100, align 2
  %102 = zext i16 %101 to i32
  %103 = add i32 %97, %102
  store i32 %103, ptr %0, align 4
  %104 = and i32 %19, 63
  %105 = zext nneg i32 %104 to i64
  %106 = getelementptr [58 x i16], ptr @case_conv_ext, i64 0, i64 %105
  %107 = load i16, ptr %106, align 2
  %108 = zext i16 %107 to i32
  %109 = getelementptr i8, ptr %0, i64 4
  store i32 %108, ptr %109, align 4
  br label %161

110:                                              ; preds = %5
  %111 = icmp eq i32 %2, 1
  br i1 %111, label %160, label %112

112:                                              ; preds = %110
  %113 = sub i32 %1, %21
  %114 = lshr i32 %20, 6
  %115 = zext nneg i32 %114 to i64
  %116 = getelementptr [58 x i16], ptr @case_conv_ext, i64 0, i64 %115
  %117 = load i16, ptr %116, align 2
  %118 = zext i16 %117 to i32
  %119 = add i32 %113, %118
  store i32 %119, ptr %0, align 4
  %120 = and i32 %19, 63
  %121 = zext nneg i32 %120 to i64
  %122 = getelementptr [58 x i16], ptr @case_conv_ext, i64 0, i64 %121
  %123 = load i16, ptr %122, align 2
  %124 = zext i16 %123 to i32
  %125 = getelementptr i8, ptr %0, i64 4
  store i32 %124, ptr %125, align 4
  %126 = icmp eq i32 %2, 2
  br i1 %126, label %127, label %161

127:                                              ; preds = %112
  call void @llvm.lifetime.start.p0(i64 12, ptr nonnull %10)
  %128 = call i32 @lre_case_conv(ptr noundef nonnull %10, i32 noundef %119, i32 noundef 1), !range !7
  %129 = load i32, ptr %10, align 4
  call void @llvm.lifetime.end.p0(i64 12, ptr nonnull %10)
  store i32 %129, ptr %0, align 4
  call void @llvm.lifetime.start.p0(i64 12, ptr nonnull %9)
  %130 = call i32 @lre_case_conv(ptr noundef nonnull %9, i32 noundef %124, i32 noundef 1), !range !7
  %131 = load i32, ptr %9, align 4
  call void @llvm.lifetime.end.p0(i64 12, ptr nonnull %9)
  store i32 %131, ptr %125, align 4
  br label %161

132:                                              ; preds = %5
  %133 = icmp eq i32 %2, 1
  br i1 %133, label %160, label %134

134:                                              ; preds = %132
  %135 = lshr exact i32 %15, 8
  %136 = zext nneg i32 %135 to i64
  %137 = getelementptr [58 x i16], ptr @case_conv_ext, i64 0, i64 %136
  %138 = load i16, ptr %137, align 2
  %139 = zext i16 %138 to i32
  store i32 %139, ptr %0, align 4
  %140 = lshr i32 %19, 4
  %141 = zext nneg i32 %140 to i64
  %142 = getelementptr [58 x i16], ptr @case_conv_ext, i64 0, i64 %141
  %143 = load i16, ptr %142, align 2
  %144 = zext i16 %143 to i32
  %145 = getelementptr i8, ptr %0, i64 4
  store i32 %144, ptr %145, align 4
  %146 = and i32 %19, 15
  %147 = zext nneg i32 %146 to i64
  %148 = getelementptr [58 x i16], ptr @case_conv_ext, i64 0, i64 %147
  %149 = load i16, ptr %148, align 2
  %150 = zext i16 %149 to i32
  %151 = getelementptr i8, ptr %0, i64 8
  store i32 %150, ptr %151, align 4
  %152 = icmp eq i32 %2, 2
  br i1 %152, label %153, label %161

153:                                              ; preds = %134
  call void @llvm.lifetime.start.p0(i64 12, ptr nonnull %8)
  %154 = call i32 @lre_case_conv(ptr noundef nonnull %8, i32 noundef %139, i32 noundef 1), !range !7
  %155 = load i32, ptr %8, align 4
  call void @llvm.lifetime.end.p0(i64 12, ptr nonnull %8)
  store i32 %155, ptr %0, align 4
  call void @llvm.lifetime.start.p0(i64 12, ptr nonnull %7)
  %156 = call i32 @lre_case_conv(ptr noundef nonnull %7, i32 noundef %144, i32 noundef 1), !range !7
  %157 = load i32, ptr %7, align 4
  call void @llvm.lifetime.end.p0(i64 12, ptr nonnull %7)
  store i32 %157, ptr %145, align 4
  call void @llvm.lifetime.start.p0(i64 12, ptr nonnull %6)
  %158 = call i32 @lre_case_conv(ptr noundef nonnull %6, i32 noundef %150, i32 noundef 1), !range !7
  %159 = load i32, ptr %6, align 4
  call void @llvm.lifetime.end.p0(i64 12, ptr nonnull %6)
  store i32 %159, ptr %151, align 4
  br label %161

160:                                              ; preds = %132, %110, %95, %87, %77, %71, %45, %51, %48, %35, %25, %28, %90, %79, %73, %64, %39
  %.082 = phi i32 [ %1, %132 ], [ %1, %110 ], [ %1, %95 ], [ %1, %87 ], [ %94, %90 ], [ %1, %77 ], [ %86, %79 ], [ %1, %71 ], [ %76, %73 ], [ %70, %64 ], [ %47, %45 ], [ %53, %51 ], [ %1, %48 ], [ %1, %35 ], [ %41, %39 ], [ %34, %28 ], [ %1, %25 ]
  store i32 %.082, ptr %0, align 4
  br label %161

161:                                              ; preds = %134, %153, %112, %127, %160, %96, %56
  %.0 = phi i32 [ 1, %160 ], [ 2, %96 ], [ 2, %56 ], [ 2, %127 ], [ 2, %112 ], [ 3, %153 ], [ 3, %134 ]
  ret i32 %.0
}